target datalayout = "e-m:e-p270:32:32-p271:32:32-p272:64:64-i64:64-i128:128-f80:128-n8:16:32:64-S128"
target triple = "x86_64-pc-linux-gnu"

%struct.URLContext = type { ptr, ptr, ptr, ptr, i32, i32, i32, i32, %struct.AVIOInterruptCB, i64, ptr, ptr, i32 }
%struct.AVIOInterruptCB = type { ptr, ptr }
%struct.HTTPContext = type { ptr, ptr, [8192 x i8], ptr, ptr, i32, i32, i64, i32, i64, i64, i64, ptr, ptr, %struct.HTTPAuthState, %struct.HTTPAuthState, ptr, ptr, ptr, ptr, ptr, ptr, ptr, i32, i32, i32, i32, i32, i32, ptr, i32, i32, i32, ptr, ptr, i32, i64, i64, ptr, ptr, ptr, i32, %struct.z_stream_s, ptr, ptr, i32, ptr, i32, i32, i32, i32, i32, ptr, i32, ptr, i32, i32, i32, i32, i32, i64, ptr, ptr, i64, i32, i32, i32, i32 }
%struct.HTTPAuthState = type { i32, [200 x i8], %struct.DigestParams, i32 }
%struct.DigestParams = type { [300 x i8], [10 x i8], [30 x i8], [300 x i8], [10 x i8], i32 }
%struct.z_stream_s = type { ptr, i32, i64, ptr, i32, i64, ptr, ptr, ptr, ptr, ptr, i32, i64, i64 }

; Function Attrs: nounwind uwtable
define internal i32 @http_proxy_close(ptr noundef %0) #0 {
  %2 = alloca ptr, align 8
  %3 = alloca ptr, align 8
  store ptr %0, ptr %2, align 8, !tbaa !4
  call void @llvm.lifetime.start.p0(i64 8, ptr %3) #11
  %4 = load ptr, ptr %2, align 8, !tbaa !4
  %5 = getelementptr inbounds nuw %struct.URLContext, ptr %4, i32 0, i32 2
  %6 = load ptr, ptr %5, align 8, !tbaa !9
  store ptr %6, ptr %3, align 8, !tbaa !21
  %7 = load ptr, ptr %3, align 8, !tbaa !21
  %8 = getelementptr inbounds nuw %struct.HTTPContext, ptr %7, i32 0, i32 1
  %9 = load ptr, ptr %8, align 8, !tbaa !44
  %10 = icmp ne ptr %9, null
  br i1 %10, label %11, label %15

11:                                               ; preds = %1
  %12 = load ptr, ptr %3, align 8, !tbaa !21
  %13 = getelementptr inbounds nuw %struct.HTTPContext, ptr %12, i32 0, i32 1
  %14 = call i32 @ffurl_closep(ptr noundef %13)
  br label %15

15:                                               ; preds = %11, %1
  call void @llvm.lifetime.end.p0(i64 8, ptr %3) #11
  ret i32 0
}