; Function Attrs: nounwind uwtable
define internal noundef i32 @http_proxy_close(ptr noundef readonly captures(none) %0) #2 {
  %2 = getelementptr inbounds nuw i8, ptr %0, i64 16
  %3 = load ptr, ptr %2, align 8, !tbaa !4
  %4 = getelementptr inbounds nuw i8, ptr %3, i64 8
  %5 = load ptr, ptr %4, align 8, !tbaa !37
  %.not = icmp eq ptr %5, null
  br i1 %.not, label %8, label %6

6:                                                ; preds = %1
  %7 = tail call i32 @ffurl_closep(ptr noundef nonnull %4) #15
  br label %8

8:                                                ; preds = %6, %1
  ret i32 0
}